target datalayout = "e-m:e-p270:32:32-p271:32:32-p272:64:64-i64:64-i128:128-f80:128-n8:16:32:64-S128"
target triple = "x86_64-pc-linux-gnu"

%struct.mbedtls_ssl_context = type { ptr, i32, i32, i32, i32, i32, ptr, ptr, ptr, ptr, ptr, ptr, ptr, ptr, ptr, ptr, ptr, ptr, ptr, ptr, ptr, ptr, ptr, ptr, ptr, ptr, ptr, ptr, ptr, ptr, ptr, ptr, ptr, i32, i64, i64, i16, i64, i64, i64, i64, i32, i32, i8, i8, i32, i8, ptr, ptr, ptr, ptr, ptr, ptr, ptr, i32, i64, i64, [8 x i8], i16, ptr, ptr, ptr, i64, i32, i64, [12 x i8], [12 x i8], [32 x i8], i8, i8, ptr, ptr, %union.mbedtls_ssl_user_data_t }
%union.mbedtls_ssl_user_data_t = type { i64 }
%struct.mbedtls_ssl_config = type { i32, i32, i8, i8, i8, i8, i8, i8, i8, i8, i8, i8, i16, i8, i8, i8, ptr, i32, ptr, ptr, ptr, ptr, ptr, ptr, ptr, ptr, ptr, ptr, ptr, ptr, ptr, ptr, ptr, ptr, ptr, ptr, ptr, i64, ptr, ptr, ptr, ptr, ptr, ptr, ptr, ptr, %struct.mbedtls_mpi, %struct.mbedtls_mpi, ptr, i64, ptr, i64, ptr, i32, i32, i32, i32, [8 x i8], i32, i32, %union.mbedtls_ssl_user_data_t, ptr, ptr }
%struct.mbedtls_mpi = type { ptr, i16, i16 }

; Function Attrs: nounwind uwtable
define hidden void @mbedtls_ssl_update_in_pointers(ptr noundef %0) #0 {
  %2 = alloca ptr, align 8
  store ptr %0, ptr %2, align 8, !tbaa !3
  %3 = load ptr, ptr %2, align 8, !tbaa !3
  %4 = getelementptr inbounds nuw %struct.mbedtls_ssl_context, ptr %3, i32 0, i32 0
  %5 = load ptr, ptr %4, align 8, !tbaa !23
  %6 = getelementptr inbounds nuw %struct.mbedtls_ssl_config, ptr %5, i32 0, i32 3
  %7 = load i8, ptr %6, align 1, !tbaa !24
  %8 = zext i8 %7 to i32
  %9 = icmp eq i32 %8, 1
  br i1 %9, label %10, label %34

10:                                               ; preds = %1
  %11 = load ptr, ptr %2, align 8, !tbaa !3
  %12 = getelementptr inbounds nuw %struct.mbedtls_ssl_context, ptr %11, i32 0, i32 27
  %13 = load ptr, ptr %12, align 8, !tbaa !77
  %14 = getelementptr inbounds i8, ptr %13, i64 3
  %15 = load ptr, ptr %2, align 8, !tbaa !3
  %16 = getelementptr inbounds nuw %struct.mbedtls_ssl_context, ptr %15, i32 0, i32 26
  store ptr %14, ptr %16, align 8, !tbaa !44
  %17 = load ptr, ptr %2, align 8, !tbaa !3
  %18 = getelementptr inbounds nuw %struct.mbedtls_ssl_context, ptr %17, i32 0, i32 26
  %19 = load ptr, ptr %18, align 8, !tbaa !44
  %20 = getelementptr inbounds i8, ptr %19, i64 8
  %21 = load ptr, ptr %2, align 8, !tbaa !3
  %22 = getelementptr inbounds nuw %struct.mbedtls_ssl_context, ptr %21, i32 0, i32 28
  store ptr %20, ptr %22, align 8, !tbaa !160
  %23 = load ptr, ptr %2, align 8, !tbaa !3
  %24 = getelementptr inbounds nuw %struct.mbedtls_ssl_context, ptr %23, i32 0, i32 28
  %25 = load ptr, ptr %24, align 8, !tbaa !160
  %26 = load ptr, ptr %2, align 8, !tbaa !3
  %27 = getelementptr inbounds nuw %struct.mbedtls_ssl_context, ptr %26, i32 0, i32 29
  store ptr %25, ptr %27, align 8, !tbaa !161
  %28 = load ptr, ptr %2, align 8, !tbaa !3
  %29 = getelementptr inbounds nuw %struct.mbedtls_ssl_context, ptr %28, i32 0, i32 29
  %30 = load ptr, ptr %29, align 8, !tbaa !161
  %31 = getelementptr inbounds i8, ptr %30, i64 2
  %32 = load ptr, ptr %2, align 8, !tbaa !3
  %33 = getelementptr inbounds nuw %struct.mbedtls_ssl_context, ptr %32, i32 0, i32 30
  store ptr %31, ptr %33, align 8, !tbaa !162
  br label %58

34:                                               ; preds = %1
  %35 = load ptr, ptr %2, align 8, !tbaa !3
  %36 = getelementptr inbounds nuw %struct.mbedtls_ssl_context, ptr %35, i32 0, i32 27
  %37 = load ptr, ptr %36, align 8, !tbaa !77
  %38 = getelementptr inbounds i8, ptr %37, i64 -8
  %39 = load ptr, ptr %2, align 8, !tbaa !3
  %40 = getelementptr inbounds nuw %struct.mbedtls_ssl_context, ptr %39, i32 0, i32 26
  store ptr %38, ptr %40, align 8, !tbaa !44
  %41 = load ptr, ptr %2, align 8, !tbaa !3
  %42 = getelementptr inbounds nuw %struct.mbedtls_ssl_context, ptr %41, i32 0, i32 27
  %43 = load ptr, ptr %42, align 8, !tbaa !77
  %44 = getelementptr inbounds i8, ptr %43, i64 3
  %45 = load ptr, ptr %2, align 8, !tbaa !3
  %46 = getelementptr inbounds nuw %struct.mbedtls_ssl_context, ptr %45, i32 0, i32 29
  store ptr %44, ptr %46, align 8, !tbaa !161
  %47 = load ptr, ptr %2, align 8, !tbaa !3
  %48 = getelementptr inbounds nuw %struct.mbedtls_ssl_context, ptr %47, i32 0, i32 29
  %49 = load ptr, ptr %48, align 8, !tbaa !161
  %50 = load ptr, ptr %2, align 8, !tbaa !3
  %51 = getelementptr inbounds nuw %struct.mbedtls_ssl_context, ptr %50, i32 0, i32 28
  store ptr %49, ptr %51, align 8, !tbaa !160
  %52 = load ptr, ptr %2, align 8, !tbaa !3
  %53 = getelementptr inbounds nuw %struct.mbedtls_ssl_context, ptr %52, i32 0, i32 27
  %54 = load ptr, ptr %53, align 8, !tbaa !77
  %55 = getelementptr inbounds i8, ptr %54, i64 5
  %56 = load ptr, ptr %2, align 8, !tbaa !3
  %57 = getelementptr inbounds nuw %struct.mbedtls_ssl_context, ptr %56, i32 0, i32 30
  store ptr %55, ptr %57, align 8, !tbaa !162
  br label %58

58:                                               ; preds = %34, %10
  %59 = load ptr, ptr %2, align 8, !tbaa !3
  %60 = getelementptr inbounds nuw %struct.mbedtls_ssl_context, ptr %59, i32 0, i32 30
  %61 = load ptr, ptr %60, align 8, !tbaa !162
  %62 = load ptr, ptr %2, align 8, !tbaa !3
  %63 = getelementptr inbounds nuw %struct.mbedtls_ssl_context, ptr %62, i32 0, i32 31
  store ptr %61, ptr %63, align 8, !tbaa !135
  ret void
}