; Function Attrs: mustprogress nofree norecurse nosync nounwind willreturn memory(read, argmem: readwrite, inaccessiblemem: none) uwtable
define hidden void @mbedtls_ssl_update_in_pointers(ptr noundef captures(none) initializes((192, 200), (208, 240)) %0) local_unnamed_addr #7 {
  %2 = load ptr, ptr %0, align 8, !tbaa !18
  %3 = getelementptr inbounds nuw i8, ptr %2, i64 9
  %4 = load i8, ptr %3, align 1, !tbaa !19
  %5 = icmp eq i8 %4, 1
  %6 = getelementptr inbounds nuw i8, ptr %0, i64 200
  %7 = load ptr, ptr %6, align 8, !tbaa !70
  %. = select i1 %5, i64 3, i64 -8
  %.24 = select i1 %5, i64 11, i64 3
  %.25 = select i1 %5, i64 13, i64 5
  %8 = getelementptr inbounds i8, ptr %7, i64 %.
  %9 = getelementptr inbounds nuw i8, ptr %7, i64 %.24
  %10 = getelementptr inbounds nuw i8, ptr %7, i64 %.25
  %11 = getelementptr inbounds nuw i8, ptr %0, i64 192
  store ptr %8, ptr %11, align 8, !tbaa !38
  %12 = getelementptr inbounds nuw i8, ptr %0, i64 208
  store ptr %9, ptr %12, align 8, !tbaa !151
  %13 = getelementptr inbounds nuw i8, ptr %0, i64 216
  store ptr %9, ptr %13, align 8, !tbaa !152
  %14 = getelementptr inbounds nuw i8, ptr %0, i64 224
  store ptr %10, ptr %14, align 8, !tbaa !153
  %15 = getelementptr inbounds nuw i8, ptr %0, i64 232
  store ptr %10, ptr %15, align 8, !tbaa !137
  ret void
}